; ModuleID = '53/1340.c'
source_filename = "53/1340.c"
target datalayout = "e-m:e-p270:32:32-p271:32:32-p272:64:64-i64:64-f80:128-n8:16:32:64-S128"
target triple = "x86_64-pc-linux-gnu"

@.str = private unnamed_addr constant [3 x i8] c"%d\00", align 1
@.str.1 = private unnamed_addr constant [4 x i8] c"%d,\00", align 1

; Function Attrs: noinline nounwind uwtable
define dso_local i32 @main() #0 {
  %1 = alloca i32, align 4
  %2 = alloca i32, align 4
  %3 = alloca i32, align 4
  %4 = alloca [100 x i32], align 16
  %5 = alloca [100 x i32], align 16
  %6 = alloca i32, align 4
  %7 = alloca i32, align 4
  %8 = alloca i32, align 4
  store i32 0, i32* %1, align 4
  store i32 0, i32* %7, align 4
  %9 = call i32 (i8*, ...) @__isoc99_scanf(i8* getelementptr inbounds ([3 x i8], [3 x i8]* @.str, i64 0, i64 0), i32* %2)
  store i32 0, i32* %3, align 4
  br label %10

10:                                               ; preds = %19, %0
  %11 = load i32, i32* %3, align 4
  %12 = load i32, i32* %2, align 4
  %13 = icmp slt i32 %11, %12
  br i1 %13, label %14, label %22

14:                                               ; preds = %10
  %15 = load i32, i32* %3, align 4
  %16 = sext i32 %15 to i64
  %17 = getelementptr inbounds [100 x i32], [100 x i32]* %4, i64 0, i64 %16
  %18 = call i32 (i8*, ...) @__isoc99_scanf(i8* getelementptr inbounds ([3 x i8], [3 x i8]* @.str, i64 0, i64 0), i32* %17)
  br label %19

19:                                               ; preds = %14
  %20 = load i32, i32* %3, align 4
  %21 = add nsw i32 %20, 1
  store i32 %21, i32* %3, align 4
  br label %10

22:                                               ; preds = %10
  store i32 0, i32* %3, align 4
  br label %23

23:                                               ; preds = %63, %22
  %24 = load i32, i32* %3, align 4
  %25 = load i32, i32* %2, align 4
  %26 = icmp slt i32 %24, %25
  br i1 %26, label %27, label %66

27:                                               ; preds = %23
  store i32 0, i32* %6, align 4
  store i32 0, i32* %8, align 4
  br label %28

28:                                               ; preds = %46, %27
  %29 = load i32, i32* %6, align 4
  %30 = load i32, i32* %3, align 4
  %31 = icmp slt i32 %29, %30
  br i1 %31, label %32, label %49

32:                                               ; preds = %28
  %33 = load i32, i32* %6, align 4
  %34 = sext i32 %33 to i64
  %35 = getelementptr inbounds [100 x i32], [100 x i32]* %4, i64 0, i64 %34
  %36 = load i32, i32* %35, align 4
  %37 = load i32, i32* %3, align 4
  %38 = sext i32 %37 to i64
  %39 = getelementptr inbounds [100 x i32], [100 x i32]* %4, i64 0, i64 %38
  %40 = load i32, i32* %39, align 4
  %41 = icmp eq i32 %36, %40
  br i1 %41, label %42, label %45

42:                                               ; preds = %32
  %43 = load i32, i32* %8, align 4
  %44 = add nsw i32 %43, 1
  store i32 %44, i32* %8, align 4
  br label %45

45:                                               ; preds = %42, %32
  br label %46

46:                                               ; preds = %45
  %47 = load i32, i32* %6, align 4
  %48 = add nsw i32 %47, 1
  store i32 %48, i32* %6, align 4
  br label %28

49:                                               ; preds = %28
  %50 = load i32, i32* %8, align 4
  %51 = icmp eq i32 %50, 0
  br i1 %51, label %52, label %62

52:                                               ; preds = %49
  %53 = load i32, i32* %3, align 4
  %54 = sext i32 %53 to i64
  %55 = getelementptr inbounds [100 x i32], [100 x i32]* %4, i64 0, i64 %54
  %56 = load i32, i32* %55, align 4
  %57 = load i32, i32* %7, align 4
  %58 = sext i32 %57 to i64
  %59 = getelementptr inbounds [100 x i32], [100 x i32]* %5, i64 0, i64 %58
  store i32 %56, i32* %59, align 4
  %60 = load i32, i32* %7, align 4
  %61 = add nsw i32 %60, 1
  store i32 %61, i32* %7, align 4
  br label %62

62:                                               ; preds = %52, %49
  br label %63

63:                                               ; preds = %62
  %64 = load i32, i32* %3, align 4
  %65 = add nsw i32 %64, 1
  store i32 %65, i32* %3, align 4
  br label %23

66:                                               ; preds = %23
  store i32 0, i32* %3, align 4
  br label %67

67:                                               ; preds = %78, %66
  %68 = load i32, i32* %3, align 4
  %69 = load i32, i32* %7, align 4
  %70 = sub nsw i32 %69, 1
  %71 = icmp slt i32 %68, %70
  br i1 %71, label %72, label %81

72:                                               ; preds = %67
  %73 = load i32, i32* %3, align 4
  %74 = sext i32 %73 to i64
  %75 = getelementptr inbounds [100 x i32], [100 x i32]* %5, i64 0, i64 %74
  %76 = load i32, i32* %75, align 4
  %77 = call i32 (i8*, ...) @printf(i8* getelementptr inbounds ([4 x i8], [4 x i8]* @.str.1, i64 0, i64 0), i32 %76)
  br label %78

78:                                               ; preds = %72
  %79 = load i32, i32* %3, align 4
  %80 = add nsw i32 %79, 1
  store i32 %80, i32* %3, align 4
  br label %67

81:                                               ; preds = %67
  %82 = load i32, i32* %7, align 4
  %83 = sub nsw i32 %82, 1
  %84 = sext i32 %83 to i64
  %85 = getelementptr inbounds [100 x i32], [100 x i32]* %5, i64 0, i64 %84
  %86 = load i32, i32* %85, align 4
  %87 = call i32 (i8*, ...) @printf(i8* getelementptr inbounds ([3 x i8], [3 x i8]* @.str, i64 0, i64 0), i32 %86)
  ret i32 0
}

declare dso_local i32 @__isoc99_scanf(i8*, ...) #1

declare dso_local i32 @printf(i8*, ...) #1


!llvm.module.flags = !{!0}
!llvm.ident = !{!1}

!0 = !{i32 1, !"wchar_size", i32 4}
!1 = !{!"clang version 10.0.0-4ubuntu1 "}
